; Function Attrs: mustprogress uwtable
define void @_ZN6Assimp13SGSpatialSort7PrepareEv(ptr noundef nonnull readonly align 8 captures(none) dereferenceable(40) %0) local_unnamed_addr #1 align 2 {
  %2 = getelementptr inbounds nuw i8, ptr %0, i64 16
  %3 = load ptr, ptr %2, align 8
  %4 = getelementptr inbounds nuw i8, ptr %0, i64 24
  %5 = load ptr, ptr %4, align 8
  %.not.i.i = icmp eq ptr %3, %5
  br i1 %.not.i.i, label %_ZSt4sortIN9__gnu_cxx17__normal_iteratorIPN6Assimp13SGSpatialSort5EntryESt6vectorIS4_SaIS4_EEEEEvT_SA_.exit, label %6

6:                                                ; preds = %1
  %7 = ptrtoint ptr %5 to i64
  %8 = ptrtoint ptr %3 to i64
  %9 = sub i64 %7, %8
  %10 = sdiv exact i64 %9, 24
  %11 = tail call range(i64 0, 65) i64 @llvm.ctlz.i64(i64 %10, i1 true)
  %12 = shl nuw nsw i64 %11, 1
  %13 = xor i64 %12, 126
  tail call void @_ZSt16__introsort_loopIN9__gnu_cxx17__normal_iteratorIPN6Assimp13SGSpatialSort5EntryESt6vectorIS4_SaIS4_EEEElNS0_5__ops15_Iter_less_iterEEvT_SC_T0_T1_(ptr %3, ptr %5, i64 noundef %13)
  tail call void @_ZSt22__final_insertion_sortIN9__gnu_cxx17__normal_iteratorIPN6Assimp13SGSpatialSort5EntryESt6vectorIS4_SaIS4_EEEENS0_5__ops15_Iter_less_iterEEvT_SC_T0_(ptr %3, ptr %5)
  br label %_ZSt4sortIN9__gnu_cxx17__normal_iteratorIPN6Assimp13SGSpatialSort5EntryESt6vectorIS4_SaIS4_EEEEEvT_SA_.exit

_ZSt4sortIN9__gnu_cxx17__normal_iteratorIPN6Assimp13SGSpatialSort5EntryESt6vectorIS4_SaIS4_EEEEEvT_SA_.exit: ; preds = %1, %6
  ret void
}